; Function Attrs: nounwind uwtable
define void @init_vec_orth1(i32 noundef %0, ptr noundef captures(none) %1) local_unnamed_addr #0 {
  %3 = icmp sgt i32 %0, 0
  br i1 %3, label %.lr.ph.preheader, label %._crit_edge

.lr.ph.preheader:                                 ; preds = %2
  %wide.trip.count = zext nneg i32 %0 to i64
  br label %.lr.ph

.lr.ph:                                           ; preds = %.lr.ph.preheader, %.lr.ph
  %indvars.iv = phi i64 [ 0, %.lr.ph.preheader ], [ %indvars.iv.next, %.lr.ph ]
  %4 = tail call i32 @rand() #21
  %5 = srem i32 %4, 500
  %6 = sitofp i32 %5 to double
  %7 = getelementptr inbounds nuw double, ptr %1, i64 %indvars.iv
  store double %6, ptr %7, align 8, !tbaa !10
  %indvars.iv.next = add nuw nsw i64 %indvars.iv, 1
  %exitcond.not = icmp eq i64 %indvars.iv.next, %wide.trip.count
  br i1 %exitcond.not, label %._crit_edge, label %.lr.ph, !llvm.loop !59

._crit_edge:                                      ; preds = %.lr.ph, %2
  %.not17.i = icmp eq i32 %0, 0
  br i1 %.not17.i, label %orthog1.exit, label %.lr.ph.i

.lr.ph.i:                                         ; preds = %._crit_edge, %.lr.ph.i
  %.020.i = phi double [ %10, %.lr.ph.i ], [ 0.000000e+00, %._crit_edge ]
  %.01319.i = phi ptr [ %8, %.lr.ph.i ], [ %1, %._crit_edge ]
  %.01418.i = phi i32 [ %11, %.lr.ph.i ], [ %0, %._crit_edge ]
  %8 = getelementptr inbounds nuw i8, ptr %.01319.i, i64 8
  %9 = load double, ptr %.01319.i, align 8, !tbaa !10
  %10 = fadd double %.020.i, %9
  %11 = add nsw i32 %.01418.i, -1
  %.not.i = icmp eq i32 %11, 0
  br i1 %.not.i, label %._crit_edge.i, label %.lr.ph.i, !llvm.loop !57

._crit_edge.i:                                    ; preds = %.lr.ph.i
  %12 = sitofp i32 %0 to double
  %13 = fdiv double %10, %12
  br label %.lr.ph25.i

.lr.ph25.i:                                       ; preds = %.lr.ph25.i, %._crit_edge.i
  %.123.i = phi ptr [ %14, %.lr.ph25.i ], [ %1, %._crit_edge.i ]
  %.11522.i = phi i32 [ %17, %.lr.ph25.i ], [ %0, %._crit_edge.i ]
  %14 = getelementptr inbounds nuw i8, ptr %.123.i, i64 8
  %15 = load double, ptr %.123.i, align 8, !tbaa !10
  %16 = fsub double %15, %13
  store double %16, ptr %.123.i, align 8, !tbaa !10
  %17 = add nsw i32 %.11522.i, -1
  %.not16.i = icmp eq i32 %17, 0
  br i1 %.not16.i, label %orthog1.exit, label %.lr.ph25.i, !llvm.loop !58

orthog1.exit:                                     ; preds = %.lr.ph25.i, %._crit_edge
  ret void
}